; Function Attrs: mustprogress uwtable
define internal noundef ptr @"_ZZN4pkpy15__init_builtinsEPNS_2VMEEN5$_1258__invokeES1_NS_8ArgsViewE"(ptr noundef %0, ptr nocapture readonly %1, ptr nocapture readnone %2) #4 align 2 {
  %4 = load ptr, ptr %1, align 8
  %5 = getelementptr inbounds i8, ptr %4, i64 24
  %6 = getelementptr inbounds i8, ptr %1, i64 8
  %7 = load ptr, ptr %6, align 8
  %8 = tail call noundef i32 @_ZN4pkpy18_py_cast__internalIiLb1EEET_PNS_2VMEPNS_8PyObjectE(ptr noundef %0, ptr noundef %7)
  %9 = icmp slt i32 %8, 0
  %.pre.i = load i32, ptr %5, align 8
  %10 = select i1 %9, i32 %.pre.i, i32 0
  %spec.select3.i = add nsw i32 %10, %8
  %spec.store.select.i = tail call i32 @llvm.smax.i32(i32 %spec.select3.i, i32 0)
  %spec.select.i = tail call i32 @llvm.smin.i32(i32 %spec.store.select.i, i32 %.pre.i)
  %11 = getelementptr inbounds i8, ptr %1, i64 16
  %12 = load ptr, ptr %11, align 8
  %13 = getelementptr inbounds i8, ptr %4, i64 28
  %14 = load i32, ptr %13, align 4
  %15 = icmp eq i32 %.pre.i, %14
  br i1 %15, label %16, label %_ZN4pkpy10pod_vectorIPNS_8PyObjectELi4EE7reserveEi.exit.i.i

16:                                               ; preds = %3
  %17 = shl nsw i32 %.pre.i, 2
  %.not.i.i.i = icmp slt i32 %.pre.i, %17
  br i1 %.not.i.i.i, label %18, label %_ZN4pkpy10pod_vectorIPNS_8PyObjectELi4EE7reserveEi.exit.i.i

18:                                               ; preds = %16
  store i32 %17, ptr %13, align 4
  %19 = getelementptr inbounds i8, ptr %4, i64 32
  %20 = load ptr, ptr %19, align 8
  %21 = shl nsw i32 %.pre.i, 5
  %22 = sext i32 %21 to i64
  %23 = tail call noundef ptr @_ZN4pkpy12pool64_allocEm(i64 noundef %22) #35
  store ptr %23, ptr %19, align 8
  %.not6.i.i.i = icmp eq ptr %20, null
  %.pre11.i.i = load i32, ptr %5, align 8
  br i1 %.not6.i.i.i, label %_ZN4pkpy10pod_vectorIPNS_8PyObjectELi4EE7reserveEi.exit.i.i, label %24

24:                                               ; preds = %18
  %25 = shl nsw i32 %.pre11.i.i, 3
  %26 = sext i32 %25 to i64
  tail call void @llvm.memcpy.p0.p0.i64(ptr align 8 %23, ptr nonnull align 8 %20, i64 %26, i1 false)
  tail call void @_ZN4pkpy14pool64_deallocEPv(ptr noundef nonnull %20) #35
  %.pre.i.i = load i32, ptr %5, align 8
  br label %_ZN4pkpy10pod_vectorIPNS_8PyObjectELi4EE7reserveEi.exit.i.i

_ZN4pkpy10pod_vectorIPNS_8PyObjectELi4EE7reserveEi.exit.i.i: ; preds = %24, %18, %16, %3
  %27 = phi i32 [ %.pre.i.i, %24 ], [ %.pre11.i.i, %18 ], [ %.pre.i, %16 ], [ %.pre.i, %3 ]
  %28 = icmp sgt i32 %27, %spec.select.i
  br i1 %28, label %.lr.ph.i.i, label %_ZN4pkpy10pod_vectorIPNS_8PyObjectELi4EE7reserveEi.exit.._crit_edge_crit_edge.i.i

_ZN4pkpy10pod_vectorIPNS_8PyObjectELi4EE7reserveEi.exit.._crit_edge_crit_edge.i.i: ; preds = %_ZN4pkpy10pod_vectorIPNS_8PyObjectELi4EE7reserveEi.exit.i.i
  %.pre12.i.i = sext i32 %spec.select.i to i64
  br label %"_ZZN4pkpy15__init_builtinsEPNS_2VMEENK5$_125clES1_NS_8ArgsViewE.exit"

.lr.ph.i.i:                                       ; preds = %_ZN4pkpy10pod_vectorIPNS_8PyObjectELi4EE7reserveEi.exit.i.i
  %29 = getelementptr inbounds i8, ptr %4, i64 32
  %30 = sext i32 %27 to i64
  %31 = sext i32 %spec.select.i to i64
  br label %32

32:                                               ; preds = %32, %.lr.ph.i.i
  %indvars.iv.i.i = phi i64 [ %30, %.lr.ph.i.i ], [ %indvars.iv.next.i.i, %32 ]
  %33 = load ptr, ptr %29, align 8
  %34 = getelementptr ptr, ptr %33, i64 %indvars.iv.i.i
  %35 = getelementptr i8, ptr %34, i64 -8
  %36 = load ptr, ptr %35, align 8
  store ptr %36, ptr %34, align 8
  %indvars.iv.next.i.i = add nsw i64 %indvars.iv.i.i, -1
  %37 = icmp sgt i64 %indvars.iv.next.i.i, %31
  br i1 %37, label %32, label %"_ZZN4pkpy15__init_builtinsEPNS_2VMEENK5$_125clES1_NS_8ArgsViewE.exit", !llvm.loop !149

"_ZZN4pkpy15__init_builtinsEPNS_2VMEENK5$_125clES1_NS_8ArgsViewE.exit": ; preds = %32, %_ZN4pkpy10pod_vectorIPNS_8PyObjectELi4EE7reserveEi.exit.._crit_edge_crit_edge.i.i
  %.pre-phi.i.i = phi i64 [ %.pre12.i.i, %_ZN4pkpy10pod_vectorIPNS_8PyObjectELi4EE7reserveEi.exit.._crit_edge_crit_edge.i.i ], [ %31, %32 ]
  %38 = getelementptr inbounds i8, ptr %4, i64 32
  %39 = load ptr, ptr %38, align 8
  %40 = getelementptr inbounds ptr, ptr %39, i64 %.pre-phi.i.i
  store ptr %12, ptr %40, align 8
  %41 = load i32, ptr %5, align 8
  %42 = add nsw i32 %41, 1
  store i32 %42, ptr %5, align 8
  %43 = getelementptr inbounds i8, ptr %0, i64 264520
  %44 = load ptr, ptr %43, align 8
  ret ptr %44
}